; Function Attrs: mustprogress nofree norecurse nosync nounwind willreturn memory(read, inaccessiblemem: none) uwtable
define noundef zeroext i1 @_ZNK32pxrInternal_v0_24__pxrReserved__17UsdStageLoadRuleseqERKS0_(ptr nocapture noundef nonnull readonly align 8 dereferenceable(24) %0, ptr nocapture noundef nonnull readonly align 8 dereferenceable(24) %1) local_unnamed_addr #3 align 2 {
  %3 = getelementptr inbounds nuw i8, ptr %0, i64 8
  %4 = load ptr, ptr %3, align 8
  %5 = load ptr, ptr %0, align 8
  %6 = ptrtoint ptr %4 to i64
  %7 = ptrtoint ptr %5 to i64
  %8 = sub i64 %6, %7
  %9 = getelementptr inbounds nuw i8, ptr %1, i64 8
  %10 = load ptr, ptr %9, align 8
  %11 = load ptr, ptr %1, align 8
  %12 = ptrtoint ptr %10 to i64
  %13 = ptrtoint ptr %11 to i64
  %14 = sub i64 %12, %13
  %15 = icmp eq i64 %8, %14
  br i1 %15, label %16, label %_ZSteqISt4pairIN32pxrInternal_v0_24__pxrReserved__7SdfPathENS1_17UsdStageLoadRules4RuleEESaIS5_EEbRKSt6vectorIT_T0_ESC_.exit

16:                                               ; preds = %2
  %.not9.i.i.i.i.i = icmp eq ptr %5, %4
  br i1 %.not9.i.i.i.i.i, label %_ZSteqISt4pairIN32pxrInternal_v0_24__pxrReserved__7SdfPathENS1_17UsdStageLoadRules4RuleEESaIS5_EEbRKSt6vectorIT_T0_ESC_.exit, label %.lr.ph.i.i.i.i.i

.lr.ph.i.i.i.i.i:                                 ; preds = %16, %.lr.ph.i.i.i.i.i
  %.011.i.i.i.i.i = phi ptr [ %25, %.lr.ph.i.i.i.i.i ], [ %11, %16 ]
  %.0810.i.i.i.i.i = phi ptr [ %24, %.lr.ph.i.i.i.i.i ], [ %5, %16 ]
  %.0.copyload.i.i.i.i.i.i.i.i = load i64, ptr %.0810.i.i.i.i.i, align 4
  %.0.copyload.i2.i.i.i.i.i.i.i = load i64, ptr %.011.i.i.i.i.i, align 4
  %17 = icmp eq i64 %.0.copyload.i.i.i.i.i.i.i.i, %.0.copyload.i2.i.i.i.i.i.i.i
  %18 = getelementptr inbounds nuw i8, ptr %.0810.i.i.i.i.i, i64 8
  %19 = load i32, ptr %18, align 4
  %20 = getelementptr inbounds nuw i8, ptr %.011.i.i.i.i.i, i64 8
  %21 = load i32, ptr %20, align 4
  %22 = icmp eq i32 %19, %21
  %23 = select i1 %17, i1 %22, i1 false
  %24 = getelementptr inbounds i8, ptr %.0810.i.i.i.i.i, i64 12
  %25 = getelementptr inbounds i8, ptr %.011.i.i.i.i.i, i64 12
  %.not.i.i.i.i.i = icmp ne ptr %24, %4
  %or.cond.not = select i1 %23, i1 %.not.i.i.i.i.i, i1 false
  br i1 %or.cond.not, label %.lr.ph.i.i.i.i.i, label %_ZSteqISt4pairIN32pxrInternal_v0_24__pxrReserved__7SdfPathENS1_17UsdStageLoadRules4RuleEESaIS5_EEbRKSt6vectorIT_T0_ESC_.exit, !llvm.loop !22

_ZSteqISt4pairIN32pxrInternal_v0_24__pxrReserved__7SdfPathENS1_17UsdStageLoadRules4RuleEESaIS5_EEbRKSt6vectorIT_T0_ESC_.exit: ; preds = %.lr.ph.i.i.i.i.i, %2, %16
  %26 = phi i1 [ false, %2 ], [ true, %16 ], [ %23, %.lr.ph.i.i.i.i.i ]
  ret i1 %26
}